#include <math.h>
#include <stdio.h>
#include <stdlib.h>
#include <string.h>

int main()
{
  int a,b,n[100][100],l=0,i,j,k,h,g;
  char m;
  scanf("%d%c%d",&a,&m,&b);
  for(i=0;i<a;i++){
    for(j=0;j<b;j++){
      scanf("%d",&(n[i][j]));
    }
  }
  for(i=0;i<a;i++){
    for(j=0,h=j,g=n[i][j];j<b-1;j++){
      if(g<n[i][j+1])  g=n[i][j+1],h=j+1;
    }  
    for(k=0;k<a;k++){
        if(g>n[k][h]) break;
    }
    if(k==a){
      printf("%d+%d\n",i,h);
      l++;
    }
  }
  if(l==0) printf("No");
  return 0;
}